; Function Attrs: nounwind uwtable
define hidden void @zif_phpdbg_break_next(ptr noundef readonly captures(none) %0, ptr readnone captures(none) %1) #0 {
  %3 = getelementptr inbounds nuw i8, ptr %0, i64 44
  %4 = load i32, ptr %3, align 4, !tbaa !4
  %.not = icmp eq i32 %4, 0
  br i1 %.not, label %.critedge12.preheader, label %5, !prof !72

.critedge12.preheader:                            ; preds = %2
  %.015 = load ptr, ptr getelementptr inbounds nuw (i8, ptr @executor_globals, i64 512), align 8, !tbaa !73
  %.not816 = icmp eq ptr %.015, null
  br i1 %.not816, label %.critedge13, label %.lr.ph

5:                                                ; preds = %2
  tail call void @zend_wrong_parameters_none_error() #27
  %6 = load ptr, ptr getelementptr inbounds nuw (i8, ptr @executor_globals, i64 960), align 8, !tbaa !7
  %7 = icmp ne ptr %6, null
  tail call void @llvm.assume(i1 %7)
  br label %.critedge13

.lr.ph:                                           ; preds = %.critedge12.preheader, %.critedge12
  %.017 = phi ptr [ %.0, %.critedge12 ], [ %.015, %.critedge12.preheader ]
  %8 = getelementptr inbounds nuw i8, ptr %.017, i64 24
  %9 = load ptr, ptr %8, align 8, !tbaa !74
  %.not9 = icmp eq ptr %9, null
  br i1 %.not9, label %.critedge, label %10

10:                                               ; preds = %.lr.ph
  %11 = load i8, ptr %9, align 8, !tbaa !4
  %.not10 = icmp eq i8 %11, 1
  br i1 %.not10, label %.critedge12, label %.critedge

.critedge12:                                      ; preds = %10
  %12 = getelementptr inbounds nuw i8, ptr %.017, i64 48
  %.0 = load ptr, ptr %12, align 8, !tbaa !73
  %.not8 = icmp eq ptr %.0, null
  br i1 %.not8, label %.critedge13, label %.lr.ph

.critedge:                                        ; preds = %10, %.lr.ph
  %13 = load ptr, ptr %.017, align 8, !tbaa !77
  %14 = getelementptr inbounds nuw i8, ptr %13, i64 32
  tail call void @phpdbg_set_breakpoint_opline_ex(ptr noundef nonnull %14) #27
  br label %.critedge13

.critedge13:                                      ; preds = %.critedge12, %.critedge12.preheader, %.critedge, %5
  ret void
}